; Function Attrs: mustprogress uwtable
define void @_ZN5Ipopt13StreamJournal15FlushBufferImplEv(ptr nocapture noundef nonnull readonly align 8 dereferenceable(32952) %0) unnamed_addr #3 align 2 {
  %2 = getelementptr inbounds i8, ptr %0, i64 176
  %3 = load ptr, ptr %2, align 8
  %.not = icmp eq ptr %3, null
  br i1 %.not, label %6, label %4

4:                                                ; preds = %1
  %5 = tail call noundef nonnull align 8 dereferenceable(8) ptr @_ZNSolsEPFRSoS_E(ptr noundef nonnull align 8 dereferenceable(8) %3, ptr noundef nonnull @_ZSt5flushIcSt11char_traitsIcEERSt13basic_ostreamIT_T0_ES6_)
  br label %6

6:                                                ; preds = %4, %1
  ret void
}